target datalayout = "e-m:e-p270:32:32-p271:32:32-p272:64:64-i64:64-i128:128-f80:128-n8:16:32:64-S128"
target triple = "x86_64-pc-linux-gnu"

%"class.casadi::SparsityInternal" = type { %"class.casadi::SharedObjectInternal", %"class.std::vector", ptr }
%"class.casadi::SharedObjectInternal" = type { ptr, i64, ptr }
%"class.std::vector" = type { %"struct.std::_Vector_base" }
%"struct.std::_Vector_base" = type { %"struct.std::_Vector_base<long long, std::allocator<long long>>::_Vector_impl" }
%"struct.std::_Vector_base<long long, std::allocator<long long>>::_Vector_impl" = type { %"struct.std::_Vector_base<long long, std::allocator<long long>>::_Vector_impl_data" }
%"struct.std::_Vector_base<long long, std::allocator<long long>>::_Vector_impl_data" = type { ptr, ptr, ptr }
%"struct.casadi::SparsityInternal::Btf" = type { i64, %"class.std::vector", %"class.std::vector", %"class.std::vector", %"class.std::vector", %"class.std::vector", %"class.std::vector" }

; Function Attrs: mustprogress nounwind uwtable
define linkonce_odr hidden void @_ZNSt15__new_allocatorIxEC2Ev(ptr noundef nonnull align 1 dereferenceable(1) %0) unnamed_addr #4 comdat align 2 {
  %2 = alloca ptr, align 8
  store ptr %0, ptr %2, align 8
  ret void
}

; Function Attrs: mustprogress nounwind uwtable
define linkonce_odr hidden void @_ZNSt12_Vector_baseIxSaIxEE17_Vector_impl_dataC2Ev(ptr noundef nonnull align 8 dereferenceable(24) %0) unnamed_addr #4 comdat align 2 {
  %2 = alloca ptr, align 8
  store ptr %0, ptr %2, align 8
  %3 = load ptr, ptr %2, align 8
  %4 = getelementptr inbounds %"struct.std::_Vector_base<long long, std::allocator<long long>>::_Vector_impl_data", ptr %3, i32 0, i32 0
  store ptr null, ptr %4, align 8
  %5 = getelementptr inbounds %"struct.std::_Vector_base<long long, std::allocator<long long>>::_Vector_impl_data", ptr %3, i32 0, i32 1
  store ptr null, ptr %5, align 8
  %6 = getelementptr inbounds %"struct.std::_Vector_base<long long, std::allocator<long long>>::_Vector_impl_data", ptr %3, i32 0, i32 2
  store ptr null, ptr %6, align 8
  ret void
}

; Function Attrs: mustprogress nounwind uwtable
define linkonce_odr hidden void @_ZNSaIxEC2Ev(ptr noundef nonnull align 1 dereferenceable(1) %0) unnamed_addr #4 comdat align 2 {
  %2 = alloca ptr, align 8
  store ptr %0, ptr %2, align 8
  %3 = load ptr, ptr %2, align 8
  call void @_ZNSt15__new_allocatorIxEC2Ev(ptr noundef nonnull align 1 dereferenceable(1) %3) #3
  ret void
}

; Function Attrs: mustprogress nounwind uwtable
define linkonce_odr hidden void @_ZNSt12_Vector_baseIxSaIxEE12_Vector_implC2Ev(ptr noundef nonnull align 8 dereferenceable(24) %0) unnamed_addr #4 comdat align 2 {
  %2 = alloca ptr, align 8
  store ptr %0, ptr %2, align 8
  %3 = load ptr, ptr %2, align 8
  call void @_ZNSaIxEC2Ev(ptr noundef nonnull align 1 dereferenceable(1) %3) #3
  call void @_ZNSt12_Vector_baseIxSaIxEE17_Vector_impl_dataC2Ev(ptr noundef nonnull align 8 dereferenceable(24) %3) #3
  ret void
}

; Function Attrs: mustprogress nounwind uwtable
define linkonce_odr hidden void @_ZNSt12_Vector_baseIxSaIxEEC2Ev(ptr noundef nonnull align 8 dereferenceable(24) %0) unnamed_addr #4 comdat align 2 {
  %2 = alloca ptr, align 8
  store ptr %0, ptr %2, align 8
  %3 = load ptr, ptr %2, align 8
  %4 = getelementptr inbounds %"struct.std::_Vector_base", ptr %3, i32 0, i32 0
  call void @_ZNSt12_Vector_baseIxSaIxEE12_Vector_implC2Ev(ptr noundef nonnull align 8 dereferenceable(24) %4) #3
  ret void
}

; Function Attrs: mustprogress nounwind uwtable
define linkonce_odr hidden void @_ZNSt6vectorIxSaIxEEC2Ev(ptr noundef nonnull align 8 dereferenceable(24) %0) unnamed_addr #4 comdat align 2 {
  %2 = alloca ptr, align 8
  store ptr %0, ptr %2, align 8
  %3 = load ptr, ptr %2, align 8
  call void @_ZNSt12_Vector_baseIxSaIxEEC2Ev(ptr noundef nonnull align 8 dereferenceable(24) %3) #3
  ret void
}

; Function Attrs: mustprogress nounwind uwtable
define linkonce_odr hidden void @_ZN6casadi16SparsityInternal3BtfC2Ev(ptr noundef nonnull align 8 dereferenceable(152) %0) unnamed_addr #4 comdat align 2 {
  %2 = alloca ptr, align 8
  store ptr %0, ptr %2, align 8
  %3 = load ptr, ptr %2, align 8
  %4 = getelementptr inbounds %"struct.casadi::SparsityInternal::Btf", ptr %3, i32 0, i32 1
  call void @_ZNSt6vectorIxSaIxEEC2Ev(ptr noundef nonnull align 8 dereferenceable(24) %4) #3
  %5 = getelementptr inbounds %"struct.casadi::SparsityInternal::Btf", ptr %3, i32 0, i32 2
  call void @_ZNSt6vectorIxSaIxEEC2Ev(ptr noundef nonnull align 8 dereferenceable(24) %5) #3
  %6 = getelementptr inbounds %"struct.casadi::SparsityInternal::Btf", ptr %3, i32 0, i32 3
  call void @_ZNSt6vectorIxSaIxEEC2Ev(ptr noundef nonnull align 8 dereferenceable(24) %6) #3
  %7 = getelementptr inbounds %"struct.casadi::SparsityInternal::Btf", ptr %3, i32 0, i32 4
  call void @_ZNSt6vectorIxSaIxEEC2Ev(ptr noundef nonnull align 8 dereferenceable(24) %7) #3
  %8 = getelementptr inbounds %"struct.casadi::SparsityInternal::Btf", ptr %3, i32 0, i32 5
  call void @_ZNSt6vectorIxSaIxEEC2Ev(ptr noundef nonnull align 8 dereferenceable(24) %8) #3
  %9 = getelementptr inbounds %"struct.casadi::SparsityInternal::Btf", ptr %3, i32 0, i32 6
  call void @_ZNSt6vectorIxSaIxEEC2Ev(ptr noundef nonnull align 8 dereferenceable(24) %9) #3
  ret void
}

; Function Attrs: mustprogress uwtable
define noundef nonnull align 8 dereferenceable(152) ptr @_ZNK6casadi16SparsityInternal3btfEv(ptr noundef nonnull align 8 dereferenceable(56) %0) #5 align 2 {
  %2 = alloca ptr, align 8
  store ptr %0, ptr %2, align 8
  %3 = load ptr, ptr %2, align 8
  %4 = getelementptr inbounds %"class.casadi::SparsityInternal", ptr %3, i32 0, i32 2
  %5 = load ptr, ptr %4, align 8
  %6 = icmp ne ptr %5, null
  br i1 %6, label %32, label %7

7:                                                ; preds = %1
  %8 = call noalias noundef nonnull ptr @_Znwm(i64 noundef 152) #18
  call void @llvm.memset.p0.i64(ptr align 16 %8, i8 0, i64 152, i1 false)
  call void @_ZN6casadi16SparsityInternal3BtfC2Ev(ptr noundef nonnull align 8 dereferenceable(152) %8) #3
  %9 = getelementptr inbounds %"class.casadi::SparsityInternal", ptr %3, i32 0, i32 2
  store ptr %8, ptr %9, align 8
  %10 = getelementptr inbounds %"class.casadi::SparsityInternal", ptr %3, i32 0, i32 2
  %11 = load ptr, ptr %10, align 8
  %12 = getelementptr inbounds %"struct.casadi::SparsityInternal::Btf", ptr %11, i32 0, i32 1
  %13 = getelementptr inbounds %"class.casadi::SparsityInternal", ptr %3, i32 0, i32 2
  %14 = load ptr, ptr %13, align 8
  %15 = getelementptr inbounds %"struct.casadi::SparsityInternal::Btf", ptr %14, i32 0, i32 2
  %16 = getelementptr inbounds %"class.casadi::SparsityInternal", ptr %3, i32 0, i32 2
  %17 = load ptr, ptr %16, align 8
  %18 = getelementptr inbounds %"struct.casadi::SparsityInternal::Btf", ptr %17, i32 0, i32 3
  %19 = getelementptr inbounds %"class.casadi::SparsityInternal", ptr %3, i32 0, i32 2
  %20 = load ptr, ptr %19, align 8
  %21 = getelementptr inbounds %"struct.casadi::SparsityInternal::Btf", ptr %20, i32 0, i32 4
  %22 = getelementptr inbounds %"class.casadi::SparsityInternal", ptr %3, i32 0, i32 2
  %23 = load ptr, ptr %22, align 8
  %24 = getelementptr inbounds %"struct.casadi::SparsityInternal::Btf", ptr %23, i32 0, i32 5
  %25 = getelementptr inbounds %"class.casadi::SparsityInternal", ptr %3, i32 0, i32 2
  %26 = load ptr, ptr %25, align 8
  %27 = getelementptr inbounds %"struct.casadi::SparsityInternal::Btf", ptr %26, i32 0, i32 6
  %28 = call noundef i64 @_ZNK6casadi16SparsityInternal3btfERSt6vectorIxSaIxEES4_S4_S4_S4_S4_(ptr noundef nonnull align 8 dereferenceable(56) %3, ptr noundef nonnull align 8 dereferenceable(24) %12, ptr noundef nonnull align 8 dereferenceable(24) %15, ptr noundef nonnull align 8 dereferenceable(24) %18, ptr noundef nonnull align 8 dereferenceable(24) %21, ptr noundef nonnull align 8 dereferenceable(24) %24, ptr noundef nonnull align 8 dereferenceable(24) %27)
  %29 = getelementptr inbounds %"class.casadi::SparsityInternal", ptr %3, i32 0, i32 2
  %30 = load ptr, ptr %29, align 8
  %31 = getelementptr inbounds %"struct.casadi::SparsityInternal::Btf", ptr %30, i32 0, i32 0
  store i64 %28, ptr %31, align 8
  br label %32

32:                                               ; preds = %7, %1
  %33 = getelementptr inbounds %"class.casadi::SparsityInternal", ptr %3, i32 0, i32 2
  %34 = load ptr, ptr %33, align 8
  ret ptr %34
}