; Function Attrs: mustprogress uwtable
define noundef nonnull align 8 dereferenceable(152) ptr @_ZNK6casadi16SparsityInternal3btfEv(ptr noundef nonnull align 8 dereferenceable(56) %0) local_unnamed_addr #6 align 2 {
  %2 = getelementptr inbounds i8, ptr %0, i64 48
  %3 = load ptr, ptr %2, align 8
  %.not = icmp eq ptr %3, null
  br i1 %.not, label %4, label %14

4:                                                ; preds = %1
  %5 = tail call noalias noundef nonnull dereferenceable(152) ptr @_Znwm(i64 noundef 152) #28
  %6 = getelementptr inbounds i8, ptr %5, i64 8
  tail call void @llvm.memset.p0.i64(ptr noundef nonnull align 16 dereferenceable(152) %5, i8 0, i64 152, i1 false)
  store ptr %5, ptr %2, align 8
  %7 = getelementptr inbounds i8, ptr %5, i64 32
  %8 = getelementptr inbounds i8, ptr %5, i64 56
  %9 = getelementptr inbounds i8, ptr %5, i64 80
  %10 = getelementptr inbounds i8, ptr %5, i64 104
  %11 = getelementptr inbounds i8, ptr %5, i64 128
  %12 = tail call noundef i64 @_ZNK6casadi16SparsityInternal3btfERSt6vectorIxSaIxEES4_S4_S4_S4_S4_(ptr noundef nonnull align 8 dereferenceable(56) %0, ptr noundef nonnull align 8 dereferenceable(24) %6, ptr noundef nonnull align 8 dereferenceable(24) %7, ptr noundef nonnull align 8 dereferenceable(24) %8, ptr noundef nonnull align 8 dereferenceable(24) %9, ptr noundef nonnull align 8 dereferenceable(24) %10, ptr noundef nonnull align 8 dereferenceable(24) %11)
  %13 = load ptr, ptr %2, align 8
  store i64 %12, ptr %13, align 8
  %.pre = load ptr, ptr %2, align 8
  br label %14

14:                                               ; preds = %4, %1
  %15 = phi ptr [ %.pre, %4 ], [ %3, %1 ]
  ret ptr %15
}